target datalayout = "e-m:e-p270:32:32-p271:32:32-p272:64:64-i64:64-i128:128-f80:128-n8:16:32:64-S128"
target triple = "x86_64-pc-linux-gnu"

%struct._ftype_t = type { i32, i32, ptr, ptr, ptr, ptr, ptr, ptr, ptr, ptr, ptr, ptr, ptr, ptr, ptr, %union.anon, %union.anon.0, ptr, ptr, ptr, ptr, ptr, ptr, ptr, ptr, ptr, ptr, ptr, ptr, ptr, ptr, ptr }
%union.anon = type { ptr }
%union.anon.0 = type { ptr }
%struct._fvalue_t = type { ptr, %union.anon.1 }
%union.anon.1 = type { %struct._protocol_value_t }
%struct._protocol_value_t = type { ptr, i32, ptr, i8 }
%struct._wmem_strbuf_t = type { ptr, ptr, i64, i64 }

@.str.102 = private unnamed_addr constant [1 x i8] zeroinitializer, align 1
@.str.103 = private unnamed_addr constant [21 x i8] c"epan/ftypes/ftypes.c\00", align 1
@.str.105 = private unnamed_addr constant [4 x i8] c"-%u\00", align 1
@__func__.fvalue_set_strbuf = private unnamed_addr constant [18 x i8] c"fvalue_set_strbuf\00", align 1
@.str.106 = private unnamed_addr constant [37 x i8] c"Fvalue strbuf allocator must be NULL\00", align 1

; Function Attrs: null_pointer_is_valid sspstrong uwtable
define void @fvalue_set_strbuf(ptr noundef %0, ptr noundef %1) #0 {
  %3 = alloca ptr, align 8
  %4 = alloca ptr, align 8
  store ptr %0, ptr %3, align 8
  store ptr %1, ptr %4, align 8
  %5 = load ptr, ptr %4, align 8
  %6 = getelementptr inbounds nuw %struct._wmem_strbuf_t, ptr %5, i32 0, i32 0
  %7 = load ptr, ptr %6, align 8
  %8 = icmp ne ptr %7, null
  br i1 %8, label %9, label %12

9:                                                ; preds = %2
  br label %10

10:                                               ; preds = %9
  call void (ptr, i32, ptr, i64, ptr, ptr, ...) @ws_log_full(ptr noundef @.str.102, i32 noundef 6, ptr noundef @.str.103, i64 noundef 1032, ptr noundef @__func__.fvalue_set_strbuf, ptr noundef @.str.106)
  br label %11

11:                                               ; preds = %10
  br label %12

12:                                               ; preds = %11, %2
  br label %13

13:                                               ; preds = %12
  br label %14

14:                                               ; preds = %13
  br label %15

15:                                               ; preds = %14
  br label %16

16:                                               ; preds = %15
  %17 = load ptr, ptr %3, align 8
  %18 = getelementptr inbounds nuw %struct._fvalue_t, ptr %17, i32 0, i32 0
  %19 = load ptr, ptr %18, align 8
  %20 = getelementptr inbounds nuw %struct._ftype_t, ptr %19, i32 0, i32 15
  %21 = load ptr, ptr %20, align 8
  %22 = load ptr, ptr %3, align 8
  %23 = load ptr, ptr %4, align 8
  call void %21(ptr noundef %22, ptr noundef %23)
  ret void
}

; Function Attrs: null_pointer_is_valid sspstrong uwtable
define void @fvalue_set_ax25(ptr noundef %0, ptr noundef %1) #0 {
  %3 = alloca ptr, align 8
  %4 = alloca ptr, align 8
  %5 = alloca ptr, align 8
  %6 = alloca i64, align 8
  %7 = alloca i8, align 1
  store ptr %0, ptr %3, align 8
  store ptr %1, ptr %4, align 8
  call void @llvm.lifetime.start.p0(i64 8, ptr %5) #9
  %8 = call noalias ptr @wmem_strbuf_new(ptr noundef null, ptr noundef null)
  store ptr %8, ptr %5, align 8
  call void @llvm.lifetime.start.p0(i64 8, ptr %6) #9
  store i64 0, ptr %6, align 8
  br label %9

9:                                                ; preds = %30, %2
  %10 = load i64, ptr %6, align 8
  %11 = icmp ult i64 %10, 6
  br i1 %11, label %13, label %12

12:                                               ; preds = %9
  call void @llvm.lifetime.end.p0(i64 8, ptr %6) #9
  br label %33

13:                                               ; preds = %9
  %14 = load ptr, ptr %4, align 8
  %15 = load i64, ptr %6, align 8
  %16 = getelementptr i8, ptr %14, i64 %15
  %17 = load i8, ptr %16, align 1
  %18 = zext i8 %17 to i32
  %19 = icmp ne i32 %18, 64
  br i1 %19, label %20, label %29

20:                                               ; preds = %13
  %21 = load ptr, ptr %5, align 8
  %22 = load ptr, ptr %4, align 8
  %23 = load i64, ptr %6, align 8
  %24 = getelementptr i8, ptr %22, i64 %23
  %25 = load i8, ptr %24, align 1
  %26 = zext i8 %25 to i32
  %27 = ashr i32 %26, 1
  %28 = trunc i32 %27 to i8
  call void @wmem_strbuf_append_c(ptr noundef %21, i8 noundef signext %28)
  br label %29

29:                                               ; preds = %20, %13
  br label %30

30:                                               ; preds = %29
  %31 = load i64, ptr %6, align 8
  %32 = add i64 %31, 1
  store i64 %32, ptr %6, align 8
  br label %9, !llvm.loop !8

33:                                               ; preds = %12
  call void @llvm.lifetime.start.p0(i64 1, ptr %7) #9
  %34 = load ptr, ptr %4, align 8
  %35 = getelementptr i8, ptr %34, i64 6
  %36 = load i8, ptr %35, align 1
  %37 = zext i8 %36 to i32
  %38 = ashr i32 %37, 1
  %39 = and i32 %38, 15
  %40 = trunc i32 %39 to i8
  store i8 %40, ptr %7, align 1
  %41 = load i8, ptr %7, align 1
  %42 = zext i8 %41 to i32
  %43 = icmp ne i32 %42, 0
  br i1 %43, label %44, label %48

44:                                               ; preds = %33
  %45 = load ptr, ptr %5, align 8
  %46 = load i8, ptr %7, align 1
  %47 = zext i8 %46 to i32
  call void (ptr, ptr, ...) @wmem_strbuf_append_printf(ptr noundef %45, ptr noundef @.str.105, i32 noundef %47)
  br label %48

48:                                               ; preds = %44, %33
  %49 = load ptr, ptr %3, align 8
  %50 = load ptr, ptr %5, align 8
  call void @fvalue_set_strbuf(ptr noundef %49, ptr noundef %50)
  call void @llvm.lifetime.end.p0(i64 1, ptr %7) #9
  call void @llvm.lifetime.end.p0(i64 8, ptr %5) #9
  ret void
}