; Function Attrs: null_pointer_is_valid sspstrong uwtable
define void @fvalue_set_ax25(ptr noundef %0, ptr noundef readonly captures(none) %1) local_unnamed_addr #0 {
  %3 = tail call noalias ptr @wmem_strbuf_new(ptr noundef null, ptr noundef null)
  br label %9

4:                                                ; preds = %14
  %5 = getelementptr i8, ptr %1, i64 6
  %6 = load i8, ptr %5, align 1
  %7 = lshr i8 %6, 1
  %8 = and i8 %7, 15
  %.not = icmp eq i8 %8, 0
  br i1 %.not, label %18, label %16

9:                                                ; preds = %2, %14
  %.015 = phi i64 [ 0, %2 ], [ %15, %14 ]
  %10 = getelementptr i8, ptr %1, i64 %.015
  %11 = load i8, ptr %10, align 1
  %.not14 = icmp eq i8 %11, 64
  br i1 %.not14, label %14, label %12

12:                                               ; preds = %9
  %13 = lshr i8 %11, 1
  tail call void @wmem_strbuf_append_c(ptr noundef %3, i8 noundef signext %13)
  br label %14

14:                                               ; preds = %9, %12
  %15 = add nuw nsw i64 %.015, 1
  %exitcond.not = icmp eq i64 %15, 6
  br i1 %exitcond.not, label %4, label %9, !llvm.loop !6

16:                                               ; preds = %4
  %17 = zext nneg i8 %8 to i32
  tail call void (ptr, ptr, ...) @wmem_strbuf_append_printf(ptr noundef %3, ptr noundef nonnull @.str.105, i32 noundef %17)
  br label %18

18:                                               ; preds = %16, %4
  %19 = load ptr, ptr %3, align 8
  %.not.i = icmp eq ptr %19, null
  br i1 %.not.i, label %fvalue_set_strbuf.exit, label %20

20:                                               ; preds = %18
  tail call void (ptr, i32, ptr, i64, ptr, ptr, ...) @ws_log_full(ptr noundef nonnull @.str.102, i32 noundef 6, ptr noundef nonnull @.str.103, i64 noundef 1032, ptr noundef nonnull @__func__.fvalue_set_strbuf, ptr noundef nonnull @.str.106)
  br label %fvalue_set_strbuf.exit

fvalue_set_strbuf.exit:                           ; preds = %18, %20
  %21 = load ptr, ptr %0, align 8
  %22 = getelementptr inbounds nuw i8, ptr %21, i64 112
  %23 = load ptr, ptr %22, align 8
  tail call void %23(ptr noundef %0, ptr noundef %3)
  ret void
}